
Practica 8.elf:     file format elf32-avr

Sections:
Idx Name          Size      VMA       LMA       File off  Algn
  0 .data         00000032  00800200  00000b3e  00000bd2  2**0
                  CONTENTS, ALLOC, LOAD, DATA
  1 .text         00000b3e  00000000  00000000  00000094  2**1
                  CONTENTS, ALLOC, LOAD, READONLY, CODE
  2 .bss          00000210  00800232  00800232  00000c04  2**0
                  ALLOC
  3 .comment      00000030  00000000  00000000  00000c04  2**0
                  CONTENTS, READONLY
  4 .note.gnu.avr.deviceinfo 00000040  00000000  00000000  00000c34  2**2
                  CONTENTS, READONLY
  5 .debug_aranges 000000d8  00000000  00000000  00000c74  2**0
                  CONTENTS, READONLY, DEBUGGING
  6 .debug_info   00001993  00000000  00000000  00000d4c  2**0
                  CONTENTS, READONLY, DEBUGGING
  7 .debug_abbrev 00000e15  00000000  00000000  000026df  2**0
                  CONTENTS, READONLY, DEBUGGING
  8 .debug_line   00000973  00000000  00000000  000034f4  2**0
                  CONTENTS, READONLY, DEBUGGING
  9 .debug_frame  000003ac  00000000  00000000  00003e68  2**2
                  CONTENTS, READONLY, DEBUGGING
 10 .debug_str    00000738  00000000  00000000  00004214  2**0
                  CONTENTS, READONLY, DEBUGGING
 11 .debug_loc    00000ecd  00000000  00000000  0000494c  2**0
                  CONTENTS, READONLY, DEBUGGING
 12 .debug_ranges 000000b8  00000000  00000000  00005819  2**0
                  CONTENTS, READONLY, DEBUGGING

Disassembly of section .text:

00000000 <__vectors>:
   0:	71 c0       	rjmp	.+226    	; 0xe4 <__ctors_end>
   2:	00 00       	nop
   4:	8e c0       	rjmp	.+284    	; 0x122 <__bad_interrupt>
   6:	00 00       	nop
   8:	8c c0       	rjmp	.+280    	; 0x122 <__bad_interrupt>
   a:	00 00       	nop
   c:	8a c0       	rjmp	.+276    	; 0x122 <__bad_interrupt>
   e:	00 00       	nop
  10:	88 c0       	rjmp	.+272    	; 0x122 <__bad_interrupt>
  12:	00 00       	nop
  14:	86 c0       	rjmp	.+268    	; 0x122 <__bad_interrupt>
  16:	00 00       	nop
  18:	84 c0       	rjmp	.+264    	; 0x122 <__bad_interrupt>
  1a:	00 00       	nop
  1c:	82 c0       	rjmp	.+260    	; 0x122 <__bad_interrupt>
  1e:	00 00       	nop
  20:	80 c0       	rjmp	.+256    	; 0x122 <__bad_interrupt>
  22:	00 00       	nop
  24:	7e c0       	rjmp	.+252    	; 0x122 <__bad_interrupt>
  26:	00 00       	nop
  28:	7c c0       	rjmp	.+248    	; 0x122 <__bad_interrupt>
  2a:	00 00       	nop
  2c:	7a c0       	rjmp	.+244    	; 0x122 <__bad_interrupt>
  2e:	00 00       	nop
  30:	78 c0       	rjmp	.+240    	; 0x122 <__bad_interrupt>
  32:	00 00       	nop
  34:	76 c0       	rjmp	.+236    	; 0x122 <__bad_interrupt>
  36:	00 00       	nop
  38:	74 c0       	rjmp	.+232    	; 0x122 <__bad_interrupt>
  3a:	00 00       	nop
  3c:	72 c0       	rjmp	.+228    	; 0x122 <__bad_interrupt>
  3e:	00 00       	nop
  40:	70 c0       	rjmp	.+224    	; 0x122 <__bad_interrupt>
  42:	00 00       	nop
  44:	6e c0       	rjmp	.+220    	; 0x122 <__bad_interrupt>
  46:	00 00       	nop
  48:	6c c0       	rjmp	.+216    	; 0x122 <__bad_interrupt>
  4a:	00 00       	nop
  4c:	6a c0       	rjmp	.+212    	; 0x122 <__bad_interrupt>
  4e:	00 00       	nop
  50:	68 c0       	rjmp	.+208    	; 0x122 <__bad_interrupt>
  52:	00 00       	nop
  54:	66 c0       	rjmp	.+204    	; 0x122 <__bad_interrupt>
  56:	00 00       	nop
  58:	64 c0       	rjmp	.+200    	; 0x122 <__bad_interrupt>
  5a:	00 00       	nop
  5c:	62 c0       	rjmp	.+196    	; 0x122 <__bad_interrupt>
  5e:	00 00       	nop
  60:	60 c0       	rjmp	.+192    	; 0x122 <__bad_interrupt>
  62:	00 00       	nop
  64:	8c c3       	rjmp	.+1816   	; 0x77e <__vector_25>
  66:	00 00       	nop
  68:	6a c4       	rjmp	.+2260   	; 0x93e <__vector_26>
  6a:	00 00       	nop
  6c:	5a c0       	rjmp	.+180    	; 0x122 <__bad_interrupt>
  6e:	00 00       	nop
  70:	58 c0       	rjmp	.+176    	; 0x122 <__bad_interrupt>
  72:	00 00       	nop
  74:	56 c0       	rjmp	.+172    	; 0x122 <__bad_interrupt>
  76:	00 00       	nop
  78:	54 c0       	rjmp	.+168    	; 0x122 <__bad_interrupt>
  7a:	00 00       	nop
  7c:	52 c0       	rjmp	.+164    	; 0x122 <__bad_interrupt>
  7e:	00 00       	nop
  80:	50 c0       	rjmp	.+160    	; 0x122 <__bad_interrupt>
  82:	00 00       	nop
  84:	4e c0       	rjmp	.+156    	; 0x122 <__bad_interrupt>
  86:	00 00       	nop
  88:	4c c0       	rjmp	.+152    	; 0x122 <__bad_interrupt>
  8a:	00 00       	nop
  8c:	4a c0       	rjmp	.+148    	; 0x122 <__bad_interrupt>
  8e:	00 00       	nop
  90:	ae c3       	rjmp	.+1884   	; 0x7ee <__vector_36>
  92:	00 00       	nop
  94:	86 c4       	rjmp	.+2316   	; 0x9a2 <__vector_37>
  96:	00 00       	nop
  98:	44 c0       	rjmp	.+136    	; 0x122 <__bad_interrupt>
  9a:	00 00       	nop
  9c:	42 c0       	rjmp	.+132    	; 0x122 <__bad_interrupt>
  9e:	00 00       	nop
  a0:	40 c0       	rjmp	.+128    	; 0x122 <__bad_interrupt>
  a2:	00 00       	nop
  a4:	3e c0       	rjmp	.+124    	; 0x122 <__bad_interrupt>
  a6:	00 00       	nop
  a8:	3c c0       	rjmp	.+120    	; 0x122 <__bad_interrupt>
  aa:	00 00       	nop
  ac:	3a c0       	rjmp	.+116    	; 0x122 <__bad_interrupt>
  ae:	00 00       	nop
  b0:	38 c0       	rjmp	.+112    	; 0x122 <__bad_interrupt>
  b2:	00 00       	nop
  b4:	36 c0       	rjmp	.+108    	; 0x122 <__bad_interrupt>
  b6:	00 00       	nop
  b8:	34 c0       	rjmp	.+104    	; 0x122 <__bad_interrupt>
  ba:	00 00       	nop
  bc:	32 c0       	rjmp	.+100    	; 0x122 <__bad_interrupt>
  be:	00 00       	nop
  c0:	30 c0       	rjmp	.+96     	; 0x122 <__bad_interrupt>
  c2:	00 00       	nop
  c4:	2e c0       	rjmp	.+92     	; 0x122 <__bad_interrupt>
  c6:	00 00       	nop
  c8:	2c c0       	rjmp	.+88     	; 0x122 <__bad_interrupt>
  ca:	00 00       	nop
  cc:	c8 c3       	rjmp	.+1936   	; 0x85e <__vector_51>
  ce:	00 00       	nop
  d0:	9a c4       	rjmp	.+2356   	; 0xa06 <__vector_52>
  d2:	00 00       	nop
  d4:	26 c0       	rjmp	.+76     	; 0x122 <__bad_interrupt>
  d6:	00 00       	nop
  d8:	fa c3       	rjmp	.+2036   	; 0x8ce <__vector_54>
  da:	00 00       	nop
  dc:	c6 c4       	rjmp	.+2444   	; 0xa6a <__vector_55>
  de:	00 00       	nop
  e0:	20 c0       	rjmp	.+64     	; 0x122 <__bad_interrupt>
	...

000000e4 <__ctors_end>:
  e4:	11 24       	eor	r1, r1
  e6:	1f be       	out	0x3f, r1	; 63
  e8:	cf ef       	ldi	r28, 0xFF	; 255
  ea:	d1 e2       	ldi	r29, 0x21	; 33
  ec:	de bf       	out	0x3e, r29	; 62
  ee:	cd bf       	out	0x3d, r28	; 61
  f0:	00 e0       	ldi	r16, 0x00	; 0
  f2:	0c bf       	out	0x3c, r16	; 60

000000f4 <__do_copy_data>:
  f4:	12 e0       	ldi	r17, 0x02	; 2
  f6:	a0 e0       	ldi	r26, 0x00	; 0
  f8:	b2 e0       	ldi	r27, 0x02	; 2
  fa:	ee e3       	ldi	r30, 0x3E	; 62
  fc:	fb e0       	ldi	r31, 0x0B	; 11
  fe:	00 e0       	ldi	r16, 0x00	; 0
 100:	0b bf       	out	0x3b, r16	; 59
 102:	02 c0       	rjmp	.+4      	; 0x108 <__do_copy_data+0x14>
 104:	07 90       	elpm	r0, Z+
 106:	0d 92       	st	X+, r0
 108:	a2 33       	cpi	r26, 0x32	; 50
 10a:	b1 07       	cpc	r27, r17
 10c:	d9 f7       	brne	.-10     	; 0x104 <__do_copy_data+0x10>

0000010e <__do_clear_bss>:
 10e:	24 e0       	ldi	r18, 0x04	; 4
 110:	a2 e3       	ldi	r26, 0x32	; 50
 112:	b2 e0       	ldi	r27, 0x02	; 2
 114:	01 c0       	rjmp	.+2      	; 0x118 <.do_clear_bss_start>

00000116 <.do_clear_bss_loop>:
 116:	1d 92       	st	X+, r1

00000118 <.do_clear_bss_start>:
 118:	a2 34       	cpi	r26, 0x42	; 66
 11a:	b2 07       	cpc	r27, r18
 11c:	e1 f7       	brne	.-8      	; 0x116 <.do_clear_bss_loop>
 11e:	02 d0       	rcall	.+4      	; 0x124 <main>
 120:	0c c5       	rjmp	.+2584   	; 0xb3a <_exit>

00000122 <__bad_interrupt>:
 122:	6e cf       	rjmp	.-292    	; 0x0 <__vectors>

00000124 <main>:

enum Color{
	BLACK = 30,RED,GREEN,YELLOW,BLUE,PURPLE,CYAN,WHITE
};

int main( void ){
 124:	cf 93       	push	r28
 126:	df 93       	push	r29
 128:	cd b7       	in	r28, 0x3d	; 61
 12a:	de b7       	in	r29, 0x3e	; 62
 12c:	64 97       	sbiw	r28, 0x14	; 20
 12e:	0f b6       	in	r0, 0x3f	; 63
 130:	f8 94       	cli
 132:	de bf       	out	0x3e, r29	; 62
 134:	0f be       	out	0x3f, r0	; 63
 136:	cd bf       	out	0x3d, r28	; 61
	char cad[20];
	char cadUart3[20];
	uint16_t num;
	
	UART_Buffer_Ini();
 138:	86 d0       	rcall	.+268    	; 0x246 <UART_Buffer_Ini>

	UART_Ini(0,12345,8,1,2);
 13a:	02 e0       	ldi	r16, 0x02	; 2
 13c:	10 e0       	ldi	r17, 0x00	; 0
 13e:	21 e0       	ldi	r18, 0x01	; 1
 140:	30 e0       	ldi	r19, 0x00	; 0
 142:	48 e0       	ldi	r20, 0x08	; 8
 144:	50 e0       	ldi	r21, 0x00	; 0
 146:	69 e3       	ldi	r22, 0x39	; 57
 148:	70 e3       	ldi	r23, 0x30	; 48
 14a:	80 e0       	ldi	r24, 0x00	; 0
 14c:	90 e0       	ldi	r25, 0x00	; 0
 14e:	9c d0       	rcall	.+312    	; 0x288 <UART_Ini>
	UART_Ini(2,115200,8,0,1);
 150:	ee 24       	eor	r14, r14
 152:	e3 94       	inc	r14
 154:	f1 2c       	mov	r15, r1
 156:	00 e0       	ldi	r16, 0x00	; 0
 158:	10 e0       	ldi	r17, 0x00	; 0
 15a:	28 e0       	ldi	r18, 0x08	; 8
 15c:	30 e0       	ldi	r19, 0x00	; 0
 15e:	40 e0       	ldi	r20, 0x00	; 0
 160:	52 ec       	ldi	r21, 0xC2	; 194
 162:	61 e0       	ldi	r22, 0x01	; 1
 164:	70 e0       	ldi	r23, 0x00	; 0
 166:	82 e0       	ldi	r24, 0x02	; 2
 168:	90 e0       	ldi	r25, 0x00	; 0
 16a:	8e d0       	rcall	.+284    	; 0x288 <UART_Ini>
	UART_Ini(3,115200,8,0,1);
 16c:	28 e0       	ldi	r18, 0x08	; 8
 16e:	30 e0       	ldi	r19, 0x00	; 0
 170:	40 e0       	ldi	r20, 0x00	; 0
 172:	52 ec       	ldi	r21, 0xC2	; 194
 174:	61 e0       	ldi	r22, 0x01	; 1
 176:	70 e0       	ldi	r23, 0x00	; 0
 178:	83 e0       	ldi	r24, 0x03	; 3
 17a:	90 e0       	ldi	r25, 0x00	; 0
	while(1){
		UART_getchar(0);
 17c:	85 d0       	rcall	.+266    	; 0x288 <UART_Ini>
 17e:	80 e0       	ldi	r24, 0x00	; 0
 180:	90 e0       	ldi	r25, 0x00	; 0
		UART_clrscr(0);
 182:	9a d1       	rcall	.+820    	; 0x4b8 <UART_getchar>
 184:	80 e0       	ldi	r24, 0x00	; 0
 186:	90 e0       	ldi	r25, 0x00	; 0
 188:	2d d2       	rcall	.+1114   	; 0x5e4 <UART_clrscr>

		UART_gotoxy(0,2,2);
 18a:	42 e0       	ldi	r20, 0x02	; 2
 18c:	50 e0       	ldi	r21, 0x00	; 0
 18e:	62 e0       	ldi	r22, 0x02	; 2
 190:	70 e0       	ldi	r23, 0x00	; 0
 192:	80 e0       	ldi	r24, 0x00	; 0
 194:	90 e0       	ldi	r25, 0x00	; 0
		UART_setColor(0,YELLOW);
 196:	96 d2       	rcall	.+1324   	; 0x6c4 <UART_gotoxy>
 198:	61 e2       	ldi	r22, 0x21	; 33
 19a:	70 e0       	ldi	r23, 0x00	; 0
 19c:	80 e0       	ldi	r24, 0x00	; 0
 19e:	90 e0       	ldi	r25, 0x00	; 0
		UART_puts(0,"Introduce un numero:");
 1a0:	66 d2       	rcall	.+1228   	; 0x66e <UART_setColor>
 1a2:	60 e0       	ldi	r22, 0x00	; 0
 1a4:	72 e0       	ldi	r23, 0x02	; 2
 1a6:	80 e0       	ldi	r24, 0x00	; 0
 1a8:	90 e0       	ldi	r25, 0x00	; 0
		
		UART_gotoxy(0,22,2);
 1aa:	6e d1       	rcall	.+732    	; 0x488 <UART_puts>
 1ac:	42 e0       	ldi	r20, 0x02	; 2
 1ae:	50 e0       	ldi	r21, 0x00	; 0
 1b0:	66 e1       	ldi	r22, 0x16	; 22
 1b2:	70 e0       	ldi	r23, 0x00	; 0
 1b4:	80 e0       	ldi	r24, 0x00	; 0
 1b6:	90 e0       	ldi	r25, 0x00	; 0
		UART_setColor(0,GREEN);
 1b8:	85 d2       	rcall	.+1290   	; 0x6c4 <UART_gotoxy>
 1ba:	60 e2       	ldi	r22, 0x20	; 32
 1bc:	70 e0       	ldi	r23, 0x00	; 0
 1be:	80 e0       	ldi	r24, 0x00	; 0
		UART_gets(0,cad);
 1c0:	90 e0       	ldi	r25, 0x00	; 0
 1c2:	55 d2       	rcall	.+1194   	; 0x66e <UART_setColor>
 1c4:	be 01       	movw	r22, r28
 1c6:	6f 5f       	subi	r22, 0xFF	; 255
 1c8:	7f 4f       	sbci	r23, 0xFF	; 255
 1ca:	80 e0       	ldi	r24, 0x00	; 0
		/*UART_puts(2,cad);
		UART_gets(3,cadUart3);
		UART_gotoxy(0,5,3);
		UART_puts(0,cadUart3);*/
		// -------------------------------------------
		num = atoi(cad);
 1cc:	90 e0       	ldi	r25, 0x00	; 0
 1ce:	ca d1       	rcall	.+916    	; 0x564 <UART_gets>
 1d0:	ce 01       	movw	r24, r28
 1d2:	01 96       	adiw	r24, 0x01	; 1
		itoa(num,cad,16);
 1d4:	b6 d2       	rcall	.+1388   	; 0x742 <atoi>
 1d6:	8c 01       	movw	r16, r24
 1d8:	40 e1       	ldi	r20, 0x10	; 16
 1da:	50 e0       	ldi	r21, 0x00	; 0
 1dc:	be 01       	movw	r22, r28
 1de:	6f 5f       	subi	r22, 0xFF	; 255
		
		UART_gotoxy(0,5,4);
 1e0:	7f 4f       	sbci	r23, 0xFF	; 255
 1e2:	04 d2       	rcall	.+1032   	; 0x5ec <itoa>
 1e4:	44 e0       	ldi	r20, 0x04	; 4
 1e6:	50 e0       	ldi	r21, 0x00	; 0
 1e8:	65 e0       	ldi	r22, 0x05	; 5
 1ea:	70 e0       	ldi	r23, 0x00	; 0
 1ec:	80 e0       	ldi	r24, 0x00	; 0
		UART_setColor(0,BLUE);
 1ee:	90 e0       	ldi	r25, 0x00	; 0
 1f0:	69 d2       	rcall	.+1234   	; 0x6c4 <UART_gotoxy>
 1f2:	62 e2       	ldi	r22, 0x22	; 34
 1f4:	70 e0       	ldi	r23, 0x00	; 0
 1f6:	80 e0       	ldi	r24, 0x00	; 0
		UART_puts(0,"Hex: ");
 1f8:	90 e0       	ldi	r25, 0x00	; 0
 1fa:	39 d2       	rcall	.+1138   	; 0x66e <UART_setColor>
 1fc:	65 e1       	ldi	r22, 0x15	; 21
 1fe:	72 e0       	ldi	r23, 0x02	; 2
 200:	80 e0       	ldi	r24, 0x00	; 0
		UART_puts(0,cad);
 202:	90 e0       	ldi	r25, 0x00	; 0
 204:	41 d1       	rcall	.+642    	; 0x488 <UART_puts>
 206:	be 01       	movw	r22, r28
 208:	6f 5f       	subi	r22, 0xFF	; 255
 20a:	7f 4f       	sbci	r23, 0xFF	; 255
 20c:	80 e0       	ldi	r24, 0x00	; 0
		itoa(num,cad,2);
 20e:	90 e0       	ldi	r25, 0x00	; 0
 210:	3b d1       	rcall	.+630    	; 0x488 <UART_puts>
 212:	42 e0       	ldi	r20, 0x02	; 2
 214:	50 e0       	ldi	r21, 0x00	; 0
 216:	be 01       	movw	r22, r28
 218:	6f 5f       	subi	r22, 0xFF	; 255
		
		UART_gotoxy(0,5,5);
 21a:	7f 4f       	sbci	r23, 0xFF	; 255
 21c:	c8 01       	movw	r24, r16
 21e:	e6 d1       	rcall	.+972    	; 0x5ec <itoa>
 220:	45 e0       	ldi	r20, 0x05	; 5
 222:	50 e0       	ldi	r21, 0x00	; 0
 224:	65 e0       	ldi	r22, 0x05	; 5
 226:	70 e0       	ldi	r23, 0x00	; 0
 228:	80 e0       	ldi	r24, 0x00	; 0
		UART_puts(0,"Bin: ");
 22a:	90 e0       	ldi	r25, 0x00	; 0
 22c:	4b d2       	rcall	.+1174   	; 0x6c4 <UART_gotoxy>
 22e:	6b e1       	ldi	r22, 0x1B	; 27
 230:	72 e0       	ldi	r23, 0x02	; 2
 232:	80 e0       	ldi	r24, 0x00	; 0
 234:	90 e0       	ldi	r25, 0x00	; 0
		UART_puts(0,cad);
 236:	28 d1       	rcall	.+592    	; 0x488 <UART_puts>
 238:	be 01       	movw	r22, r28
 23a:	6f 5f       	subi	r22, 0xFF	; 255
 23c:	7f 4f       	sbci	r23, 0xFF	; 255
 23e:	80 e0       	ldi	r24, 0x00	; 0
 240:	90 e0       	ldi	r25, 0x00	; 0
 242:	22 d1       	rcall	.+580    	; 0x488 <UART_puts>
 244:	9c cf       	rjmp	.-200    	; 0x17e <main+0x5a>

00000246 <UART_Buffer_Ini>:
		case 3:
			return (IF_BUFFER_EMPTY(buffer_tx3) ? 0 : 1);
		break;
	}
	return -1; 
}
 246:	10 92 38 03 	sts	0x0338, r1	; 0x800338 <buffer_rx0+0x40>
 24a:	10 92 39 03 	sts	0x0339, r1	; 0x800339 <buffer_rx0+0x41>
 24e:	10 92 72 02 	sts	0x0272, r1	; 0x800272 <__data_end+0x40>
 252:	10 92 73 02 	sts	0x0273, r1	; 0x800273 <__data_end+0x41>
 256:	10 92 bc 03 	sts	0x03BC, r1	; 0x8003bc <buffer_rx1+0x40>
 25a:	10 92 bd 03 	sts	0x03BD, r1	; 0x8003bd <buffer_rx1+0x41>
 25e:	10 92 7a 03 	sts	0x037A, r1	; 0x80037a <buffer_tx1+0x40>
 262:	10 92 7b 03 	sts	0x037B, r1	; 0x80037b <buffer_tx1+0x41>
 266:	10 92 b4 02 	sts	0x02B4, r1	; 0x8002b4 <buffer_rx2+0x40>
 26a:	10 92 b5 02 	sts	0x02B5, r1	; 0x8002b5 <buffer_rx2+0x41>
 26e:	10 92 40 04 	sts	0x0440, r1	; 0x800440 <buffer_tx2+0x40>
 272:	10 92 41 04 	sts	0x0441, r1	; 0x800441 <buffer_tx2+0x41>
 276:	10 92 fe 03 	sts	0x03FE, r1	; 0x8003fe <buffer_rx3+0x40>
 27a:	10 92 ff 03 	sts	0x03FF, r1	; 0x8003ff <buffer_rx3+0x41>
 27e:	10 92 f6 02 	sts	0x02F6, r1	; 0x8002f6 <buffer_tx3+0x40>
 282:	10 92 f7 02 	sts	0x02F7, r1	; 0x8002f7 <buffer_tx3+0x41>
 286:	08 95       	ret

00000288 <UART_Ini>:
 288:	8f 92       	push	r8
 28a:	9f 92       	push	r9
 28c:	af 92       	push	r10
 28e:	bf 92       	push	r11
 290:	cf 92       	push	r12
 292:	df 92       	push	r13
 294:	ff 92       	push	r15
 296:	0f 93       	push	r16
 298:	1f 93       	push	r17
 29a:	cf 93       	push	r28
 29c:	df 93       	push	r29
 29e:	14 2f       	mov	r17, r20
 2a0:	f2 2e       	mov	r15, r18
 2a2:	78 94       	sei
 2a4:	83 30       	cpi	r24, 0x03	; 3
 2a6:	b8 f0       	brcs	.+46     	; 0x2d6 <UART_Ini+0x4e>
 2a8:	83 30       	cpi	r24, 0x03	; 3
 2aa:	89 f5       	brne	.+98     	; 0x30e <UART_Ini+0x86>
 2ac:	0f 2e       	mov	r0, r31
 2ae:	f4 e3       	ldi	r31, 0x34	; 52
 2b0:	8f 2e       	mov	r8, r31
 2b2:	99 24       	eor	r9, r9
 2b4:	93 94       	inc	r9
 2b6:	f0 2d       	mov	r31, r0
 2b8:	c2 e3       	ldi	r28, 0x32	; 50
 2ba:	d1 e0       	ldi	r29, 0x01	; 1
 2bc:	0f 2e       	mov	r0, r31
 2be:	f1 e3       	ldi	r31, 0x31	; 49
 2c0:	cf 2e       	mov	r12, r31
 2c2:	dd 24       	eor	r13, r13
 2c4:	d3 94       	inc	r13
 2c6:	f0 2d       	mov	r31, r0
 2c8:	0f 2e       	mov	r0, r31
 2ca:	f0 e3       	ldi	r31, 0x30	; 48
 2cc:	af 2e       	mov	r10, r31
 2ce:	bb 24       	eor	r11, r11
 2d0:	b3 94       	inc	r11
 2d2:	f0 2d       	mov	r31, r0
 2d4:	1c c0       	rjmp	.+56     	; 0x30e <UART_Ini+0x86>
 2d6:	90 e0       	ldi	r25, 0x00	; 0
 2d8:	ec 01       	movw	r28, r24
 2da:	cc 0f       	add	r28, r28
 2dc:	dd 1f       	adc	r29, r29
 2de:	cc 0f       	add	r28, r28
 2e0:	dd 1f       	adc	r29, r29
 2e2:	cc 0f       	add	r28, r28
 2e4:	dd 1f       	adc	r29, r29
 2e6:	5e 01       	movw	r10, r28
 2e8:	20 ec       	ldi	r18, 0xC0	; 192
 2ea:	a2 0e       	add	r10, r18
 2ec:	b1 1c       	adc	r11, r1
 2ee:	6e 01       	movw	r12, r28
 2f0:	e1 ec       	ldi	r30, 0xC1	; 193
 2f2:	ce 0e       	add	r12, r30
 2f4:	d1 1c       	adc	r13, r1
 2f6:	ce 53       	subi	r28, 0x3E	; 62
 2f8:	df 4f       	sbci	r29, 0xFF	; 255
 2fa:	82 95       	swap	r24
 2fc:	92 95       	swap	r25
 2fe:	90 7f       	andi	r25, 0xF0	; 240
 300:	98 27       	eor	r25, r24
 302:	80 7f       	andi	r24, 0xF0	; 240
 304:	98 27       	eor	r25, r24
 306:	4c 01       	movw	r8, r24
 308:	f4 ec       	ldi	r31, 0xC4	; 196
 30a:	8f 0e       	add	r8, r31
 30c:	91 1c       	adc	r9, r1
 30e:	21 e0       	ldi	r18, 0x01	; 1
 310:	f2 12       	cpse	r15, r18
 312:	04 c0       	rjmp	.+8      	; 0x31c <UART_Ini+0x94>
 314:	0f 2e       	mov	r0, r31
 316:	f3 e0       	ldi	r31, 0x03	; 3
 318:	ff 2e       	mov	r15, r31
 31a:	f0 2d       	mov	r31, r0
 31c:	9b 01       	movw	r18, r22
 31e:	40 e0       	ldi	r20, 0x00	; 0
 320:	50 e0       	ldi	r21, 0x00	; 0
 322:	60 e4       	ldi	r22, 0x40	; 64
 324:	72 e4       	ldi	r23, 0x42	; 66
 326:	8f e0       	ldi	r24, 0x0F	; 15
 328:	90 e0       	ldi	r25, 0x00	; 0
 32a:	e5 d3       	rcall	.+1994   	; 0xaf6 <__udivmodsi4>
 32c:	21 50       	subi	r18, 0x01	; 1
 32e:	31 09       	sbc	r19, r1
 330:	f4 01       	movw	r30, r8
 332:	31 83       	std	Z+1, r19	; 0x01
 334:	20 83       	st	Z, r18
 336:	f5 01       	movw	r30, r10
 338:	10 82       	st	Z, r1
 33a:	88 e9       	ldi	r24, 0x98	; 152
 33c:	f6 01       	movw	r30, r12
 33e:	80 83       	st	Z, r24
 340:	41 2f       	mov	r20, r17
 342:	50 e0       	ldi	r21, 0x00	; 0
 344:	45 50       	subi	r20, 0x05	; 5
 346:	51 09       	sbc	r21, r1
 348:	44 0f       	add	r20, r20
 34a:	55 1f       	adc	r21, r21
 34c:	10 e0       	ldi	r17, 0x00	; 0
 34e:	01 50       	subi	r16, 0x01	; 1
 350:	11 09       	sbc	r17, r1
 352:	00 0f       	add	r16, r16
 354:	11 1f       	adc	r17, r17
 356:	00 0f       	add	r16, r16
 358:	11 1f       	adc	r17, r17
 35a:	00 0f       	add	r16, r16
 35c:	11 1f       	adc	r17, r17
 35e:	04 2b       	or	r16, r20
 360:	f0 e1       	ldi	r31, 0x10	; 16
 362:	ff 9e       	mul	r15, r31
 364:	c0 01       	movw	r24, r0
 366:	11 24       	eor	r1, r1
 368:	08 2b       	or	r16, r24
 36a:	08 83       	st	Y, r16
 36c:	df 91       	pop	r29
 36e:	cf 91       	pop	r28
 370:	1f 91       	pop	r17
 372:	0f 91       	pop	r16
 374:	ff 90       	pop	r15
 376:	df 90       	pop	r13
 378:	cf 90       	pop	r12
 37a:	bf 90       	pop	r11
 37c:	af 90       	pop	r10
 37e:	9f 90       	pop	r9
 380:	8f 90       	pop	r8
 382:	08 95       	ret

00000384 <UART_putchar>:
 384:	81 30       	cpi	r24, 0x01	; 1
 386:	31 f1       	breq	.+76     	; 0x3d4 <UART_putchar+0x50>
 388:	38 f0       	brcs	.+14     	; 0x398 <UART_putchar+0x14>
 38a:	82 30       	cpi	r24, 0x02	; 2
 38c:	09 f4       	brne	.+2      	; 0x390 <UART_putchar+0xc>
 38e:	40 c0       	rjmp	.+128    	; 0x410 <__LOCK_REGION_LENGTH__+0x10>
 390:	83 30       	cpi	r24, 0x03	; 3
 392:	09 f4       	brne	.+2      	; 0x396 <UART_putchar+0x12>
 394:	5b c0       	rjmp	.+182    	; 0x44c <__LOCK_REGION_LENGTH__+0x4c>
 396:	08 95       	ret
 398:	a2 e7       	ldi	r26, 0x72	; 114
 39a:	b2 e0       	ldi	r27, 0x02	; 2
 39c:	e3 e7       	ldi	r30, 0x73	; 115
 39e:	f2 e0       	ldi	r31, 0x02	; 2
 3a0:	2c 91       	ld	r18, X
 3a2:	80 81       	ld	r24, Z
 3a4:	30 e0       	ldi	r19, 0x00	; 0
 3a6:	90 e0       	ldi	r25, 0x00	; 0
 3a8:	01 97       	sbiw	r24, 0x01	; 1
 3aa:	8f 73       	andi	r24, 0x3F	; 63
 3ac:	99 27       	eor	r25, r25
 3ae:	28 17       	cp	r18, r24
 3b0:	39 07       	cpc	r19, r25
 3b2:	b1 f3       	breq	.-20     	; 0x3a0 <UART_putchar+0x1c>
 3b4:	a2 e7       	ldi	r26, 0x72	; 114
 3b6:	b2 e0       	ldi	r27, 0x02	; 2
 3b8:	ec 91       	ld	r30, X
 3ba:	81 e0       	ldi	r24, 0x01	; 1
 3bc:	8e 0f       	add	r24, r30
 3be:	8c 93       	st	X, r24
 3c0:	f0 e0       	ldi	r31, 0x00	; 0
 3c2:	ee 5c       	subi	r30, 0xCE	; 206
 3c4:	fd 4f       	sbci	r31, 0xFD	; 253
 3c6:	60 83       	st	Z, r22
 3c8:	e1 ec       	ldi	r30, 0xC1	; 193
 3ca:	f0 e0       	ldi	r31, 0x00	; 0
 3cc:	80 81       	ld	r24, Z
 3ce:	80 62       	ori	r24, 0x20	; 32
 3d0:	80 83       	st	Z, r24
 3d2:	08 95       	ret
 3d4:	aa e7       	ldi	r26, 0x7A	; 122
 3d6:	b3 e0       	ldi	r27, 0x03	; 3
 3d8:	eb e7       	ldi	r30, 0x7B	; 123
 3da:	f3 e0       	ldi	r31, 0x03	; 3
 3dc:	2c 91       	ld	r18, X
 3de:	80 81       	ld	r24, Z
 3e0:	30 e0       	ldi	r19, 0x00	; 0
 3e2:	90 e0       	ldi	r25, 0x00	; 0
 3e4:	01 97       	sbiw	r24, 0x01	; 1
 3e6:	8f 73       	andi	r24, 0x3F	; 63
 3e8:	99 27       	eor	r25, r25
 3ea:	28 17       	cp	r18, r24
 3ec:	39 07       	cpc	r19, r25
 3ee:	b1 f3       	breq	.-20     	; 0x3dc <UART_putchar+0x58>
 3f0:	aa e7       	ldi	r26, 0x7A	; 122
 3f2:	b3 e0       	ldi	r27, 0x03	; 3
 3f4:	ec 91       	ld	r30, X
 3f6:	81 e0       	ldi	r24, 0x01	; 1
 3f8:	8e 0f       	add	r24, r30
 3fa:	8c 93       	st	X, r24
 3fc:	f0 e0       	ldi	r31, 0x00	; 0
 3fe:	e6 5c       	subi	r30, 0xC6	; 198
 400:	fc 4f       	sbci	r31, 0xFC	; 252
 402:	60 83       	st	Z, r22
 404:	e9 ec       	ldi	r30, 0xC9	; 201
 406:	f0 e0       	ldi	r31, 0x00	; 0
 408:	80 81       	ld	r24, Z
 40a:	80 62       	ori	r24, 0x20	; 32
 40c:	80 83       	st	Z, r24
 40e:	08 95       	ret
 410:	a0 e4       	ldi	r26, 0x40	; 64
 412:	b4 e0       	ldi	r27, 0x04	; 4
 414:	e1 e4       	ldi	r30, 0x41	; 65
 416:	f4 e0       	ldi	r31, 0x04	; 4
 418:	2c 91       	ld	r18, X
 41a:	80 81       	ld	r24, Z
 41c:	30 e0       	ldi	r19, 0x00	; 0
 41e:	90 e0       	ldi	r25, 0x00	; 0
 420:	01 97       	sbiw	r24, 0x01	; 1
 422:	8f 73       	andi	r24, 0x3F	; 63
 424:	99 27       	eor	r25, r25
 426:	28 17       	cp	r18, r24
 428:	39 07       	cpc	r19, r25
 42a:	b1 f3       	breq	.-20     	; 0x418 <__LOCK_REGION_LENGTH__+0x18>
 42c:	a0 e4       	ldi	r26, 0x40	; 64
 42e:	b4 e0       	ldi	r27, 0x04	; 4
 430:	ec 91       	ld	r30, X
 432:	81 e0       	ldi	r24, 0x01	; 1
 434:	8e 0f       	add	r24, r30
 436:	8c 93       	st	X, r24
 438:	f0 e0       	ldi	r31, 0x00	; 0
 43a:	e0 50       	subi	r30, 0x00	; 0
 43c:	fc 4f       	sbci	r31, 0xFC	; 252
 43e:	60 83       	st	Z, r22
 440:	e1 ed       	ldi	r30, 0xD1	; 209
 442:	f0 e0       	ldi	r31, 0x00	; 0
 444:	80 81       	ld	r24, Z
 446:	80 62       	ori	r24, 0x20	; 32
 448:	80 83       	st	Z, r24
 44a:	08 95       	ret
 44c:	a6 ef       	ldi	r26, 0xF6	; 246
 44e:	b2 e0       	ldi	r27, 0x02	; 2
 450:	e7 ef       	ldi	r30, 0xF7	; 247
 452:	f2 e0       	ldi	r31, 0x02	; 2
 454:	2c 91       	ld	r18, X
 456:	80 81       	ld	r24, Z
 458:	30 e0       	ldi	r19, 0x00	; 0
 45a:	90 e0       	ldi	r25, 0x00	; 0
 45c:	01 97       	sbiw	r24, 0x01	; 1
 45e:	8f 73       	andi	r24, 0x3F	; 63
 460:	99 27       	eor	r25, r25
 462:	28 17       	cp	r18, r24
 464:	39 07       	cpc	r19, r25
 466:	b1 f3       	breq	.-20     	; 0x454 <__LOCK_REGION_LENGTH__+0x54>
 468:	a6 ef       	ldi	r26, 0xF6	; 246
 46a:	b2 e0       	ldi	r27, 0x02	; 2
 46c:	ec 91       	ld	r30, X
 46e:	81 e0       	ldi	r24, 0x01	; 1
 470:	8e 0f       	add	r24, r30
 472:	8c 93       	st	X, r24
 474:	f0 e0       	ldi	r31, 0x00	; 0
 476:	ea 54       	subi	r30, 0x4A	; 74
 478:	fd 4f       	sbci	r31, 0xFD	; 253
 47a:	60 83       	st	Z, r22
 47c:	e1 e3       	ldi	r30, 0x31	; 49
 47e:	f1 e0       	ldi	r31, 0x01	; 1
 480:	80 81       	ld	r24, Z
 482:	80 62       	ori	r24, 0x20	; 32
 484:	80 83       	st	Z, r24
 486:	08 95       	ret

00000488 <UART_puts>:
 488:	0f 93       	push	r16
 48a:	1f 93       	push	r17
 48c:	cf 93       	push	r28
 48e:	df 93       	push	r29
 490:	fb 01       	movw	r30, r22
 492:	90 81       	ld	r25, Z
 494:	99 23       	and	r25, r25
 496:	59 f0       	breq	.+22     	; 0x4ae <UART_puts+0x26>
 498:	eb 01       	movw	r28, r22
 49a:	21 96       	adiw	r28, 0x01	; 1
 49c:	08 2f       	mov	r16, r24
 49e:	10 e0       	ldi	r17, 0x00	; 0
 4a0:	69 2f       	mov	r22, r25
 4a2:	70 e0       	ldi	r23, 0x00	; 0
 4a4:	c8 01       	movw	r24, r16
 4a6:	6e df       	rcall	.-292    	; 0x384 <UART_putchar>
 4a8:	99 91       	ld	r25, Y+
 4aa:	91 11       	cpse	r25, r1
 4ac:	f9 cf       	rjmp	.-14     	; 0x4a0 <UART_puts+0x18>
 4ae:	df 91       	pop	r29
 4b0:	cf 91       	pop	r28
 4b2:	1f 91       	pop	r17
 4b4:	0f 91       	pop	r16
 4b6:	08 95       	ret

000004b8 <UART_getchar>:

char UART_getchar(uint8_t com ){
	char data =0;
	switch(com){
 4b8:	81 30       	cpi	r24, 0x01	; 1
 4ba:	c9 f0       	breq	.+50     	; 0x4ee <UART_getchar+0x36>
 4bc:	28 f0       	brcs	.+10     	; 0x4c8 <UART_getchar+0x10>
 4be:	82 30       	cpi	r24, 0x02	; 2
 4c0:	49 f1       	breq	.+82     	; 0x514 <UART_getchar+0x5c>
 4c2:	83 30       	cpi	r24, 0x03	; 3
 4c4:	d1 f1       	breq	.+116    	; 0x53a <UART_getchar+0x82>
 4c6:	4c c0       	rjmp	.+152    	; 0x560 <UART_getchar+0xa8>
		case 0:
			while(IF_BUFFER_EMPTY(buffer_rx0));
 4c8:	a8 e3       	ldi	r26, 0x38	; 56
 4ca:	b3 e0       	ldi	r27, 0x03	; 3
 4cc:	e9 e3       	ldi	r30, 0x39	; 57
 4ce:	f3 e0       	ldi	r31, 0x03	; 3
 4d0:	9c 91       	ld	r25, X
 4d2:	80 81       	ld	r24, Z
 4d4:	98 17       	cp	r25, r24
 4d6:	e1 f3       	breq	.-8      	; 0x4d0 <UART_getchar+0x18>
			data = buffer_rx0.buffer[buffer_rx0.out_idx++];
 4d8:	a9 e3       	ldi	r26, 0x39	; 57
 4da:	b3 e0       	ldi	r27, 0x03	; 3
 4dc:	ec 91       	ld	r30, X
 4de:	81 e0       	ldi	r24, 0x01	; 1
 4e0:	8e 0f       	add	r24, r30
 4e2:	8c 93       	st	X, r24
 4e4:	f0 e0       	ldi	r31, 0x00	; 0
 4e6:	e8 50       	subi	r30, 0x08	; 8
 4e8:	fd 4f       	sbci	r31, 0xFD	; 253
 4ea:	80 81       	ld	r24, Z
		break;
 4ec:	08 95       	ret
		
		case 1:
			while(IF_BUFFER_EMPTY(buffer_rx1));
 4ee:	ac eb       	ldi	r26, 0xBC	; 188
 4f0:	b3 e0       	ldi	r27, 0x03	; 3
 4f2:	ed eb       	ldi	r30, 0xBD	; 189
 4f4:	f3 e0       	ldi	r31, 0x03	; 3
 4f6:	9c 91       	ld	r25, X
 4f8:	80 81       	ld	r24, Z
 4fa:	98 17       	cp	r25, r24
 4fc:	e1 f3       	breq	.-8      	; 0x4f6 <UART_getchar+0x3e>
			data = buffer_rx1.buffer[buffer_rx1.out_idx++];
 4fe:	ad eb       	ldi	r26, 0xBD	; 189
 500:	b3 e0       	ldi	r27, 0x03	; 3
 502:	ec 91       	ld	r30, X
 504:	81 e0       	ldi	r24, 0x01	; 1
 506:	8e 0f       	add	r24, r30
 508:	8c 93       	st	X, r24
 50a:	f0 e0       	ldi	r31, 0x00	; 0
 50c:	e4 58       	subi	r30, 0x84	; 132
 50e:	fc 4f       	sbci	r31, 0xFC	; 252
 510:	80 81       	ld	r24, Z
		break;
 512:	08 95       	ret
		
		case 2:
			while(IF_BUFFER_EMPTY(buffer_rx2));
 514:	a4 eb       	ldi	r26, 0xB4	; 180
 516:	b2 e0       	ldi	r27, 0x02	; 2
 518:	e5 eb       	ldi	r30, 0xB5	; 181
 51a:	f2 e0       	ldi	r31, 0x02	; 2
 51c:	9c 91       	ld	r25, X
 51e:	80 81       	ld	r24, Z
 520:	98 17       	cp	r25, r24
 522:	e1 f3       	breq	.-8      	; 0x51c <UART_getchar+0x64>
			data = buffer_rx2.buffer[buffer_rx2.out_idx++];
 524:	a5 eb       	ldi	r26, 0xB5	; 181
 526:	b2 e0       	ldi	r27, 0x02	; 2
 528:	ec 91       	ld	r30, X
 52a:	81 e0       	ldi	r24, 0x01	; 1
 52c:	8e 0f       	add	r24, r30
 52e:	8c 93       	st	X, r24
 530:	f0 e0       	ldi	r31, 0x00	; 0
 532:	ec 58       	subi	r30, 0x8C	; 140
 534:	fd 4f       	sbci	r31, 0xFD	; 253
 536:	80 81       	ld	r24, Z
		break;
 538:	08 95       	ret
		
		case 3:
			while(IF_BUFFER_EMPTY(buffer_rx3));
 53a:	ae ef       	ldi	r26, 0xFE	; 254
 53c:	b3 e0       	ldi	r27, 0x03	; 3
 53e:	ef ef       	ldi	r30, 0xFF	; 255
 540:	f3 e0       	ldi	r31, 0x03	; 3
 542:	9c 91       	ld	r25, X
 544:	80 81       	ld	r24, Z
 546:	98 17       	cp	r25, r24
 548:	e1 f3       	breq	.-8      	; 0x542 <UART_getchar+0x8a>
			data = buffer_rx3.buffer[buffer_rx3.out_idx++];
 54a:	af ef       	ldi	r26, 0xFF	; 255
 54c:	b3 e0       	ldi	r27, 0x03	; 3
 54e:	ec 91       	ld	r30, X
 550:	81 e0       	ldi	r24, 0x01	; 1
 552:	8e 0f       	add	r24, r30
 554:	8c 93       	st	X, r24
 556:	f0 e0       	ldi	r31, 0x00	; 0
 558:	e2 54       	subi	r30, 0x42	; 66
 55a:	fc 4f       	sbci	r31, 0xFC	; 252
 55c:	80 81       	ld	r24, Z
		break;
 55e:	08 95       	ret
	}
	return -1; 
}

char UART_getchar(uint8_t com ){
	char data =0;
 560:	80 e0       	ldi	r24, 0x00	; 0
			while(IF_BUFFER_EMPTY(buffer_rx3));
			data = buffer_rx3.buffer[buffer_rx3.out_idx++];
		break;
	}
	return data;	
}
 562:	08 95       	ret

00000564 <UART_gets>:

void UART_gets(uint8_t com, char *str){
 564:	ef 92       	push	r14
 566:	ff 92       	push	r15
 568:	0f 93       	push	r16
 56a:	1f 93       	push	r17
 56c:	cf 93       	push	r28
 56e:	df 93       	push	r29
 570:	d8 2f       	mov	r29, r24
 572:	7b 01       	movw	r14, r22
	unsigned char aux;
	unsigned int i =0;
 574:	00 e0       	ldi	r16, 0x00	; 0
 576:	10 e0       	ldi	r17, 0x00	; 0
	do {
		aux = UART_getchar(com);
 578:	8d 2f       	mov	r24, r29
 57a:	9e df       	rcall	.-196    	; 0x4b8 <UART_getchar>
 57c:	c8 2f       	mov	r28, r24
		if ( (i < 18) && (aux!=8) && (aux!=13) ){
 57e:	02 31       	cpi	r16, 0x12	; 18
 580:	11 05       	cpc	r17, r1
 582:	78 f4       	brcc	.+30     	; 0x5a2 <UART_gets+0x3e>
 584:	88 30       	cpi	r24, 0x08	; 8
 586:	79 f0       	breq	.+30     	; 0x5a6 <UART_gets+0x42>
 588:	8d 30       	cpi	r24, 0x0D	; 13
 58a:	19 f1       	breq	.+70     	; 0x5d2 <UART_gets+0x6e>
			UART_putchar(com, aux);
 58c:	68 2f       	mov	r22, r24
 58e:	8d 2f       	mov	r24, r29
 590:	f9 de       	rcall	.-526    	; 0x384 <UART_putchar>
			*str++ = aux;
 592:	f7 01       	movw	r30, r14
 594:	c0 83       	st	Z, r28
			i++;
 596:	0f 5f       	subi	r16, 0xFF	; 255
 598:	1f 4f       	sbci	r17, 0xFF	; 255
	unsigned int i =0;
	do {
		aux = UART_getchar(com);
		if ( (i < 18) && (aux!=8) && (aux!=13) ){
			UART_putchar(com, aux);
			*str++ = aux;
 59a:	c7 01       	movw	r24, r14
 59c:	01 96       	adiw	r24, 0x01	; 1
 59e:	7c 01       	movw	r14, r24
 5a0:	eb cf       	rjmp	.-42     	; 0x578 <UART_gets+0x14>
			i++;
		}
		if((aux == 8) && (i>0)){
 5a2:	88 30       	cpi	r24, 0x08	; 8
 5a4:	a1 f4       	brne	.+40     	; 0x5ce <UART_gets+0x6a>
 5a6:	01 15       	cp	r16, r1
 5a8:	11 05       	cpc	r17, r1
 5aa:	31 f3       	breq	.-52     	; 0x578 <UART_gets+0x14>
			UART_putchar(com,'\b');
 5ac:	68 e0       	ldi	r22, 0x08	; 8
 5ae:	8d 2f       	mov	r24, r29
 5b0:	e9 de       	rcall	.-558    	; 0x384 <UART_putchar>
			UART_putchar(com,' ');
 5b2:	60 e2       	ldi	r22, 0x20	; 32
 5b4:	8d 2f       	mov	r24, r29
 5b6:	e6 de       	rcall	.-564    	; 0x384 <UART_putchar>
			UART_putchar(com,8);
 5b8:	68 e0       	ldi	r22, 0x08	; 8
 5ba:	8d 2f       	mov	r24, r29
 5bc:	e3 de       	rcall	.-570    	; 0x384 <UART_putchar>
 5be:	f7 01       	movw	r30, r14
			*str--='\0';
 5c0:	10 82       	st	Z, r1
 5c2:	01 50       	subi	r16, 0x01	; 1
			i--;
 5c4:	11 09       	sbc	r17, r1
 5c6:	c7 01       	movw	r24, r14
		}
		if((aux == 8) && (i>0)){
			UART_putchar(com,'\b');
			UART_putchar(com,' ');
			UART_putchar(com,8);
			*str--='\0';
 5c8:	01 97       	sbiw	r24, 0x01	; 1
 5ca:	7c 01       	movw	r14, r24
 5cc:	d5 cf       	rjmp	.-86     	; 0x578 <UART_gets+0x14>
 5ce:	8d 30       	cpi	r24, 0x0D	; 13
			i--;
		}
	} while (aux != 13);
 5d0:	99 f6       	brne	.-90     	; 0x578 <UART_gets+0x14>
 5d2:	f7 01       	movw	r30, r14
	*str = '\0';
 5d4:	10 82       	st	Z, r1
 5d6:	df 91       	pop	r29
}
 5d8:	cf 91       	pop	r28
 5da:	1f 91       	pop	r17
 5dc:	0f 91       	pop	r16
 5de:	ff 90       	pop	r15
 5e0:	ef 90       	pop	r14
 5e2:	08 95       	ret

000005e4 <UART_clrscr>:
 5e4:	61 e2       	ldi	r22, 0x21	; 33

// Escape sequences
void UART_clrscr( uint8_t com ){
	UART_puts(com, "\033[2J");	
 5e6:	72 e0       	ldi	r23, 0x02	; 2
 5e8:	4f cf       	rjmp	.-354    	; 0x488 <UART_puts>
 5ea:	08 95       	ret

000005ec <itoa>:
	    UART_puts(com,px);
	    UART_puts(com,"f");
}

// Utils
void itoa(uint16_t number, char* str, uint8_t base){
 5ec:	0f 93       	push	r16
 5ee:	1f 93       	push	r17
 5f0:	cf 93       	push	r28
 5f2:	df 93       	push	r29
 5f4:	ec 01       	movw	r28, r24
 5f6:	fb 01       	movw	r30, r22
	uint16_t aux2=0;
	uint8_t i=0,j=0;

	if(number==0){
 5f8:	89 2b       	or	r24, r25
 5fa:	21 f4       	brne	.+8      	; 0x604 <itoa+0x18>
		aux2 += 48;
		str[i++] = aux2;
 5fc:	80 e3       	ldi	r24, 0x30	; 48
 5fe:	80 83       	st	Z, r24
		str[i]='\x0';
 600:	11 82       	std	Z+1, r1	; 0x01
 602:	30 c0       	rjmp	.+96     	; 0x664 <itoa+0x78>
 604:	20 e0       	ldi	r18, 0x00	; 0
	}

	while(number > 0){

		aux2 = number%base;
 606:	04 2f       	mov	r16, r20
 608:	10 e0       	ldi	r17, 0x00	; 0
 60a:	01 c0       	rjmp	.+2      	; 0x60e <itoa+0x22>
		if(aux2 > 9){
			aux2+=7;
		}

		aux2 += 48;
		str[i++] = aux2;
 60c:	23 2f       	mov	r18, r19
		str[i]='\x0';
	}

	while(number > 0){

		aux2 = number%base;
 60e:	ce 01       	movw	r24, r28
 610:	b8 01       	movw	r22, r16
 612:	5d d2       	rcall	.+1210   	; 0xace <__udivmodhi4>
 614:	bc 01       	movw	r22, r24
		if(aux2 > 9){
 616:	0a 97       	sbiw	r24, 0x0a	; 10
 618:	10 f0       	brcs	.+4      	; 0x61e <itoa+0x32>
			aux2+=7;
 61a:	69 5f       	subi	r22, 0xF9	; 249
 61c:	7f 4f       	sbci	r23, 0xFF	; 255
		}

		aux2 += 48;
		str[i++] = aux2;
 61e:	31 e0       	ldi	r19, 0x01	; 1
 620:	32 0f       	add	r19, r18
 622:	60 5d       	subi	r22, 0xD0	; 208
 624:	7f 4f       	sbci	r23, 0xFF	; 255
 626:	df 01       	movw	r26, r30
 628:	a2 0f       	add	r26, r18
 62a:	b1 1d       	adc	r27, r1
 62c:	6c 93       	st	X, r22
		number/=base;
 62e:	ce 01       	movw	r24, r28
 630:	b8 01       	movw	r22, r16
 632:	4d d2       	rcall	.+1178   	; 0xace <__udivmodhi4>
 634:	eb 01       	movw	r28, r22
		str[i]='\x0';
 636:	df 01       	movw	r26, r30
 638:	a3 0f       	add	r26, r19
 63a:	b1 1d       	adc	r27, r1
 63c:	1c 92       	st	X, r1
		aux2 += 48;
		str[i++] = aux2;
		str[i]='\x0';
	}

	while(number > 0){
 63e:	20 97       	sbiw	r28, 0x00	; 0
 640:	29 f7       	brne	.-54     	; 0x60c <itoa+0x20>
		number/=base;
		str[i]='\x0';
	}
	
	i--;
	while (i > j)
 642:	22 23       	and	r18, r18
 644:	79 f0       	breq	.+30     	; 0x664 <itoa+0x78>
 646:	80 e0       	ldi	r24, 0x00	; 0
	{
		aux2 = str[j];
 648:	ef 01       	movw	r28, r30
 64a:	c8 0f       	add	r28, r24
 64c:	d1 1d       	adc	r29, r1
 64e:	98 81       	ld	r25, Y
		str[j] = str[i];
 650:	df 01       	movw	r26, r30
 652:	a2 0f       	add	r26, r18
 654:	b1 1d       	adc	r27, r1
 656:	3c 91       	ld	r19, X
 658:	38 83       	st	Y, r19
		str[i] = aux2;
 65a:	9c 93       	st	X, r25
		j++;
 65c:	8f 5f       	subi	r24, 0xFF	; 255
		i--;
 65e:	21 50       	subi	r18, 0x01	; 1
		number/=base;
		str[i]='\x0';
	}
	
	i--;
	while (i > j)
 660:	82 17       	cp	r24, r18
 662:	90 f3       	brcs	.-28     	; 0x648 <itoa+0x5c>
		str[j] = str[i];
		str[i] = aux2;
		j++;
		i--;
	}
}
 664:	df 91       	pop	r29
 666:	cf 91       	pop	r28
 668:	1f 91       	pop	r17
 66a:	0f 91       	pop	r16
 66c:	08 95       	ret

0000066e <UART_setColor>:
// Escape sequences
void UART_clrscr( uint8_t com ){
	UART_puts(com, "\033[2J");	
}

void UART_setColor(uint8_t com, uint8_t color){
 66e:	1f 93       	push	r17
 670:	cf 93       	push	r28
 672:	df 93       	push	r29
 674:	cd b7       	in	r28, 0x3d	; 61
 676:	de b7       	in	r29, 0x3e	; 62
 678:	28 97       	sbiw	r28, 0x08	; 8
 67a:	0f b6       	in	r0, 0x3f	; 63
 67c:	f8 94       	cli
 67e:	de bf       	out	0x3e, r29	; 62
 680:	0f be       	out	0x3f, r0	; 63
 682:	cd bf       	out	0x3d, r28	; 61
 684:	18 2f       	mov	r17, r24
 686:	86 2f       	mov	r24, r22
	char colors[8];
	
	itoa(color,colors,10);
 688:	4a e0       	ldi	r20, 0x0A	; 10
 68a:	50 e0       	ldi	r21, 0x00	; 0
 68c:	be 01       	movw	r22, r28
 68e:	6f 5f       	subi	r22, 0xFF	; 255
 690:	7f 4f       	sbci	r23, 0xFF	; 255
 692:	90 e0       	ldi	r25, 0x00	; 0
 694:	ab df       	rcall	.-170    	; 0x5ec <itoa>
	UART_puts(com, "\033[");
 696:	66 e2       	ldi	r22, 0x26	; 38
 698:	72 e0       	ldi	r23, 0x02	; 2
 69a:	81 2f       	mov	r24, r17
 69c:	f5 de       	rcall	.-534    	; 0x488 <UART_puts>
	UART_puts(com, colors);
 69e:	be 01       	movw	r22, r28
 6a0:	6f 5f       	subi	r22, 0xFF	; 255
 6a2:	7f 4f       	sbci	r23, 0xFF	; 255
 6a4:	81 2f       	mov	r24, r17
 6a6:	f0 de       	rcall	.-544    	; 0x488 <UART_puts>
	UART_puts(com, ";40m");	
 6a8:	69 e2       	ldi	r22, 0x29	; 41
 6aa:	72 e0       	ldi	r23, 0x02	; 2
 6ac:	81 2f       	mov	r24, r17
 6ae:	ec de       	rcall	.-552    	; 0x488 <UART_puts>
}
 6b0:	28 96       	adiw	r28, 0x08	; 8
 6b2:	0f b6       	in	r0, 0x3f	; 63
 6b4:	f8 94       	cli
 6b6:	de bf       	out	0x3e, r29	; 62
 6b8:	0f be       	out	0x3f, r0	; 63
 6ba:	cd bf       	out	0x3d, r28	; 61
 6bc:	df 91       	pop	r29
 6be:	cf 91       	pop	r28
 6c0:	1f 91       	pop	r17
 6c2:	08 95       	ret

000006c4 <UART_gotoxy>:

void UART_gotoxy(uint8_t com, uint8_t x, uint8_t y){
 6c4:	0f 93       	push	r16
 6c6:	1f 93       	push	r17
 6c8:	cf 93       	push	r28
 6ca:	df 93       	push	r29
 6cc:	cd b7       	in	r28, 0x3d	; 61
 6ce:	de b7       	in	r29, 0x3e	; 62
 6d0:	60 97       	sbiw	r28, 0x10	; 16
 6d2:	0f b6       	in	r0, 0x3f	; 63
 6d4:	f8 94       	cli
 6d6:	de bf       	out	0x3e, r29	; 62
 6d8:	0f be       	out	0x3f, r0	; 63
 6da:	cd bf       	out	0x3d, r28	; 61
 6dc:	18 2f       	mov	r17, r24
 6de:	86 2f       	mov	r24, r22
 6e0:	04 2f       	mov	r16, r20
	    char px[8],py[8];

	    itoa(x,px,10);
 6e2:	4a e0       	ldi	r20, 0x0A	; 10
 6e4:	50 e0       	ldi	r21, 0x00	; 0
 6e6:	be 01       	movw	r22, r28
 6e8:	6f 5f       	subi	r22, 0xFF	; 255
 6ea:	7f 4f       	sbci	r23, 0xFF	; 255
 6ec:	90 e0       	ldi	r25, 0x00	; 0
 6ee:	7e df       	rcall	.-260    	; 0x5ec <itoa>
	    itoa(y,py,10);
 6f0:	4a e0       	ldi	r20, 0x0A	; 10
 6f2:	50 e0       	ldi	r21, 0x00	; 0
 6f4:	be 01       	movw	r22, r28
 6f6:	67 5f       	subi	r22, 0xF7	; 247
 6f8:	7f 4f       	sbci	r23, 0xFF	; 255
 6fa:	80 2f       	mov	r24, r16
 6fc:	90 e0       	ldi	r25, 0x00	; 0
 6fe:	76 df       	rcall	.-276    	; 0x5ec <itoa>
	    UART_puts(com,"\033[");
 700:	66 e2       	ldi	r22, 0x26	; 38
 702:	72 e0       	ldi	r23, 0x02	; 2
 704:	81 2f       	mov	r24, r17
 706:	c0 de       	rcall	.-640    	; 0x488 <UART_puts>
	    UART_puts(com,py);
 708:	be 01       	movw	r22, r28
 70a:	67 5f       	subi	r22, 0xF7	; 247
 70c:	7f 4f       	sbci	r23, 0xFF	; 255
 70e:	81 2f       	mov	r24, r17
 710:	bb de       	rcall	.-650    	; 0x488 <UART_puts>
	    UART_puts(com,";");
 712:	6e e2       	ldi	r22, 0x2E	; 46
 714:	72 e0       	ldi	r23, 0x02	; 2
 716:	81 2f       	mov	r24, r17
 718:	b7 de       	rcall	.-658    	; 0x488 <UART_puts>
	    UART_puts(com,px);
 71a:	be 01       	movw	r22, r28
 71c:	6f 5f       	subi	r22, 0xFF	; 255
 71e:	7f 4f       	sbci	r23, 0xFF	; 255
 720:	81 2f       	mov	r24, r17
 722:	b2 de       	rcall	.-668    	; 0x488 <UART_puts>
	    UART_puts(com,"f");
 724:	60 e3       	ldi	r22, 0x30	; 48
 726:	72 e0       	ldi	r23, 0x02	; 2
 728:	81 2f       	mov	r24, r17
 72a:	ae de       	rcall	.-676    	; 0x488 <UART_puts>
 72c:	60 96       	adiw	r28, 0x10	; 16
}
 72e:	0f b6       	in	r0, 0x3f	; 63
 730:	f8 94       	cli
 732:	de bf       	out	0x3e, r29	; 62
 734:	0f be       	out	0x3f, r0	; 63
 736:	cd bf       	out	0x3d, r28	; 61
 738:	df 91       	pop	r29
 73a:	cf 91       	pop	r28
 73c:	1f 91       	pop	r17
 73e:	0f 91       	pop	r16
 740:	08 95       	ret

00000742 <atoi>:
 742:	fc 01       	movw	r30, r24
}

uint16_t atoi(char *str){
	uint16_t aux=0;
	
	while((*str) && (*str >= '0' && *str <= '9')){
 744:	90 81       	ld	r25, Z
 746:	90 53       	subi	r25, 0x30	; 48
 748:	9a 30       	cpi	r25, 0x0A	; 10
 74a:	a8 f4       	brcc	.+42     	; 0x776 <atoi+0x34>
 74c:	20 e0       	ldi	r18, 0x00	; 0
 74e:	30 e0       	ldi	r19, 0x00	; 0
		aux*=10;
 750:	a9 01       	movw	r20, r18
 752:	44 0f       	add	r20, r20
 754:	55 1f       	adc	r21, r21
 756:	22 0f       	add	r18, r18
 758:	33 1f       	adc	r19, r19
 75a:	22 0f       	add	r18, r18
 75c:	33 1f       	adc	r19, r19
 75e:	22 0f       	add	r18, r18
 760:	33 1f       	adc	r19, r19
 762:	24 0f       	add	r18, r20
 764:	35 1f       	adc	r19, r21
		(*str)-=48;
 766:	91 93       	st	Z+, r25
		aux+=(*str);
 768:	29 0f       	add	r18, r25
 76a:	31 1d       	adc	r19, r1
}

uint16_t atoi(char *str){
	uint16_t aux=0;
	
	while((*str) && (*str >= '0' && *str <= '9')){
 76c:	90 81       	ld	r25, Z
 76e:	90 53       	subi	r25, 0x30	; 48
 770:	9a 30       	cpi	r25, 0x0A	; 10
 772:	70 f3       	brcs	.-36     	; 0x750 <atoi+0xe>
 774:	02 c0       	rjmp	.+4      	; 0x77a <atoi+0x38>
		i--;
	}
}

uint16_t atoi(char *str){
	uint16_t aux=0;
 776:	20 e0       	ldi	r18, 0x00	; 0
 778:	30 e0       	ldi	r19, 0x00	; 0
		(*str)-=48;
		aux+=(*str);
		str++;
	}
	return aux;
}
 77a:	c9 01       	movw	r24, r18
 77c:	08 95       	ret

0000077e <__vector_25>:

// ISRs
//ISR( USARTx_RX_vect )
ISR( USART0_RX_vect ){ //Rutina de servicio de interrupción para el evento de recepción completa. Esta rutina inserta a la cola circular el dato que fue recibido por el UARTx.
 77e:	1f 92       	push	r1
 780:	0f 92       	push	r0
 782:	0f b6       	in	r0, 0x3f	; 63
 784:	0f 92       	push	r0
 786:	11 24       	eor	r1, r1
 788:	0b b6       	in	r0, 0x3b	; 59
 78a:	0f 92       	push	r0
 78c:	2f 93       	push	r18
 78e:	3f 93       	push	r19
 790:	8f 93       	push	r24
 792:	9f 93       	push	r25
 794:	af 93       	push	r26
 796:	bf 93       	push	r27
 798:	ef 93       	push	r30
 79a:	ff 93       	push	r31
	while(IF_BUFFER_FULL(buffer_rx0));
 79c:	a8 e3       	ldi	r26, 0x38	; 56
 79e:	b3 e0       	ldi	r27, 0x03	; 3
 7a0:	e9 e3       	ldi	r30, 0x39	; 57
 7a2:	f3 e0       	ldi	r31, 0x03	; 3
 7a4:	2c 91       	ld	r18, X
 7a6:	80 81       	ld	r24, Z
 7a8:	30 e0       	ldi	r19, 0x00	; 0
 7aa:	90 e0       	ldi	r25, 0x00	; 0
 7ac:	01 97       	sbiw	r24, 0x01	; 1
 7ae:	8f 73       	andi	r24, 0x3F	; 63
 7b0:	99 27       	eor	r25, r25
 7b2:	28 17       	cp	r18, r24
 7b4:	39 07       	cpc	r19, r25
 7b6:	b1 f3       	breq	.-20     	; 0x7a4 <__vector_25+0x26>
	
	buffer_rx0.buffer[buffer_rx0.in_idx++] = UDR0;
 7b8:	a8 e3       	ldi	r26, 0x38	; 56
 7ba:	b3 e0       	ldi	r27, 0x03	; 3
 7bc:	ec 91       	ld	r30, X
 7be:	81 e0       	ldi	r24, 0x01	; 1
 7c0:	8e 0f       	add	r24, r30
 7c2:	8c 93       	st	X, r24
 7c4:	80 91 c6 00 	lds	r24, 0x00C6	; 0x8000c6 <__TEXT_REGION_LENGTH__+0x7000c6>
 7c8:	f0 e0       	ldi	r31, 0x00	; 0
 7ca:	e8 50       	subi	r30, 0x08	; 8
 7cc:	fd 4f       	sbci	r31, 0xFD	; 253
 7ce:	80 83       	st	Z, r24
}
 7d0:	ff 91       	pop	r31
 7d2:	ef 91       	pop	r30
 7d4:	bf 91       	pop	r27
 7d6:	af 91       	pop	r26
 7d8:	9f 91       	pop	r25
 7da:	8f 91       	pop	r24
 7dc:	3f 91       	pop	r19
 7de:	2f 91       	pop	r18
 7e0:	0f 90       	pop	r0
 7e2:	0b be       	out	0x3b, r0	; 59
 7e4:	0f 90       	pop	r0
 7e6:	0f be       	out	0x3f, r0	; 63
 7e8:	0f 90       	pop	r0
 7ea:	1f 90       	pop	r1
 7ec:	18 95       	reti

000007ee <__vector_36>:

ISR( USART1_RX_vect ){
 7ee:	1f 92       	push	r1
 7f0:	0f 92       	push	r0
 7f2:	0f b6       	in	r0, 0x3f	; 63
 7f4:	0f 92       	push	r0
 7f6:	11 24       	eor	r1, r1
 7f8:	0b b6       	in	r0, 0x3b	; 59
 7fa:	0f 92       	push	r0
 7fc:	2f 93       	push	r18
 7fe:	3f 93       	push	r19
 800:	8f 93       	push	r24
 802:	9f 93       	push	r25
 804:	af 93       	push	r26
 806:	bf 93       	push	r27
 808:	ef 93       	push	r30
 80a:	ff 93       	push	r31
	while(IF_BUFFER_FULL(buffer_rx1));
 80c:	ac eb       	ldi	r26, 0xBC	; 188
 80e:	b3 e0       	ldi	r27, 0x03	; 3
 810:	ed eb       	ldi	r30, 0xBD	; 189
 812:	f3 e0       	ldi	r31, 0x03	; 3
 814:	2c 91       	ld	r18, X
 816:	80 81       	ld	r24, Z
 818:	30 e0       	ldi	r19, 0x00	; 0
 81a:	90 e0       	ldi	r25, 0x00	; 0
 81c:	01 97       	sbiw	r24, 0x01	; 1
 81e:	8f 73       	andi	r24, 0x3F	; 63
 820:	99 27       	eor	r25, r25
 822:	28 17       	cp	r18, r24
 824:	39 07       	cpc	r19, r25
 826:	b1 f3       	breq	.-20     	; 0x814 <__vector_36+0x26>
	
	buffer_rx1.buffer[buffer_rx1.in_idx++] = UDR1;
 828:	ac eb       	ldi	r26, 0xBC	; 188
 82a:	b3 e0       	ldi	r27, 0x03	; 3
 82c:	ec 91       	ld	r30, X
 82e:	81 e0       	ldi	r24, 0x01	; 1
 830:	8e 0f       	add	r24, r30
 832:	8c 93       	st	X, r24
 834:	80 91 ce 00 	lds	r24, 0x00CE	; 0x8000ce <__TEXT_REGION_LENGTH__+0x7000ce>
 838:	f0 e0       	ldi	r31, 0x00	; 0
 83a:	e4 58       	subi	r30, 0x84	; 132
 83c:	fc 4f       	sbci	r31, 0xFC	; 252
 83e:	80 83       	st	Z, r24
}
 840:	ff 91       	pop	r31
 842:	ef 91       	pop	r30
 844:	bf 91       	pop	r27
 846:	af 91       	pop	r26
 848:	9f 91       	pop	r25
 84a:	8f 91       	pop	r24
 84c:	3f 91       	pop	r19
 84e:	2f 91       	pop	r18
 850:	0f 90       	pop	r0
 852:	0b be       	out	0x3b, r0	; 59
 854:	0f 90       	pop	r0
 856:	0f be       	out	0x3f, r0	; 63
 858:	0f 90       	pop	r0
 85a:	1f 90       	pop	r1
 85c:	18 95       	reti

0000085e <__vector_51>:

ISR( USART2_RX_vect ){
 85e:	1f 92       	push	r1
 860:	0f 92       	push	r0
 862:	0f b6       	in	r0, 0x3f	; 63
 864:	0f 92       	push	r0
 866:	11 24       	eor	r1, r1
 868:	0b b6       	in	r0, 0x3b	; 59
 86a:	0f 92       	push	r0
 86c:	2f 93       	push	r18
 86e:	3f 93       	push	r19
 870:	8f 93       	push	r24
 872:	9f 93       	push	r25
 874:	af 93       	push	r26
 876:	bf 93       	push	r27
 878:	ef 93       	push	r30
 87a:	ff 93       	push	r31
	while(IF_BUFFER_FULL(buffer_rx2));
 87c:	a4 eb       	ldi	r26, 0xB4	; 180
 87e:	b2 e0       	ldi	r27, 0x02	; 2
 880:	e5 eb       	ldi	r30, 0xB5	; 181
 882:	f2 e0       	ldi	r31, 0x02	; 2
 884:	2c 91       	ld	r18, X
 886:	80 81       	ld	r24, Z
 888:	30 e0       	ldi	r19, 0x00	; 0
 88a:	90 e0       	ldi	r25, 0x00	; 0
 88c:	01 97       	sbiw	r24, 0x01	; 1
 88e:	8f 73       	andi	r24, 0x3F	; 63
 890:	99 27       	eor	r25, r25
 892:	28 17       	cp	r18, r24
 894:	39 07       	cpc	r19, r25
 896:	b1 f3       	breq	.-20     	; 0x884 <__vector_51+0x26>
	
	buffer_rx2.buffer[buffer_rx2.in_idx++] = UDR2;
 898:	a4 eb       	ldi	r26, 0xB4	; 180
 89a:	b2 e0       	ldi	r27, 0x02	; 2
 89c:	ec 91       	ld	r30, X
 89e:	81 e0       	ldi	r24, 0x01	; 1
 8a0:	8e 0f       	add	r24, r30
 8a2:	8c 93       	st	X, r24
 8a4:	80 91 d6 00 	lds	r24, 0x00D6	; 0x8000d6 <__TEXT_REGION_LENGTH__+0x7000d6>
 8a8:	f0 e0       	ldi	r31, 0x00	; 0
 8aa:	ec 58       	subi	r30, 0x8C	; 140
 8ac:	fd 4f       	sbci	r31, 0xFD	; 253
 8ae:	80 83       	st	Z, r24
}
 8b0:	ff 91       	pop	r31
 8b2:	ef 91       	pop	r30
 8b4:	bf 91       	pop	r27
 8b6:	af 91       	pop	r26
 8b8:	9f 91       	pop	r25
 8ba:	8f 91       	pop	r24
 8bc:	3f 91       	pop	r19
 8be:	2f 91       	pop	r18
 8c0:	0f 90       	pop	r0
 8c2:	0b be       	out	0x3b, r0	; 59
 8c4:	0f 90       	pop	r0
 8c6:	0f be       	out	0x3f, r0	; 63
 8c8:	0f 90       	pop	r0
 8ca:	1f 90       	pop	r1
 8cc:	18 95       	reti

000008ce <__vector_54>:

ISR( USART3_RX_vect ){
 8ce:	1f 92       	push	r1
 8d0:	0f 92       	push	r0
 8d2:	0f b6       	in	r0, 0x3f	; 63
 8d4:	0f 92       	push	r0
 8d6:	11 24       	eor	r1, r1
 8d8:	0b b6       	in	r0, 0x3b	; 59
 8da:	0f 92       	push	r0
 8dc:	2f 93       	push	r18
 8de:	3f 93       	push	r19
 8e0:	8f 93       	push	r24
 8e2:	9f 93       	push	r25
 8e4:	af 93       	push	r26
 8e6:	bf 93       	push	r27
 8e8:	ef 93       	push	r30
 8ea:	ff 93       	push	r31
	while(IF_BUFFER_FULL(buffer_rx3));
 8ec:	ae ef       	ldi	r26, 0xFE	; 254
 8ee:	b3 e0       	ldi	r27, 0x03	; 3
 8f0:	ef ef       	ldi	r30, 0xFF	; 255
 8f2:	f3 e0       	ldi	r31, 0x03	; 3
 8f4:	2c 91       	ld	r18, X
 8f6:	80 81       	ld	r24, Z
 8f8:	30 e0       	ldi	r19, 0x00	; 0
 8fa:	90 e0       	ldi	r25, 0x00	; 0
 8fc:	01 97       	sbiw	r24, 0x01	; 1
 8fe:	8f 73       	andi	r24, 0x3F	; 63
 900:	99 27       	eor	r25, r25
 902:	28 17       	cp	r18, r24
 904:	39 07       	cpc	r19, r25
 906:	b1 f3       	breq	.-20     	; 0x8f4 <__vector_54+0x26>
	
	buffer_rx3.buffer[buffer_rx3.in_idx++] = UDR3;
 908:	ae ef       	ldi	r26, 0xFE	; 254
 90a:	b3 e0       	ldi	r27, 0x03	; 3
 90c:	ec 91       	ld	r30, X
 90e:	81 e0       	ldi	r24, 0x01	; 1
 910:	8e 0f       	add	r24, r30
 912:	8c 93       	st	X, r24
 914:	80 91 36 01 	lds	r24, 0x0136	; 0x800136 <__TEXT_REGION_LENGTH__+0x700136>
 918:	f0 e0       	ldi	r31, 0x00	; 0
 91a:	e2 54       	subi	r30, 0x42	; 66
 91c:	fc 4f       	sbci	r31, 0xFC	; 252
 91e:	80 83       	st	Z, r24
}
 920:	ff 91       	pop	r31
 922:	ef 91       	pop	r30
 924:	bf 91       	pop	r27
 926:	af 91       	pop	r26
 928:	9f 91       	pop	r25
 92a:	8f 91       	pop	r24
 92c:	3f 91       	pop	r19
 92e:	2f 91       	pop	r18
 930:	0f 90       	pop	r0
 932:	0b be       	out	0x3b, r0	; 59
 934:	0f 90       	pop	r0
 936:	0f be       	out	0x3f, r0	; 63
 938:	0f 90       	pop	r0
 93a:	1f 90       	pop	r1
 93c:	18 95       	reti

0000093e <__vector_26>:

//ISR( USARTx_UDRE_vect )
ISR( USART0_UDRE_vect ){
 93e:	1f 92       	push	r1
 940:	0f 92       	push	r0
 942:	0f b6       	in	r0, 0x3f	; 63
 944:	0f 92       	push	r0
 946:	11 24       	eor	r1, r1
 948:	0b b6       	in	r0, 0x3b	; 59
 94a:	0f 92       	push	r0
 94c:	8f 93       	push	r24
 94e:	9f 93       	push	r25
 950:	af 93       	push	r26
 952:	bf 93       	push	r27
 954:	ef 93       	push	r30
 956:	ff 93       	push	r31
	if(IF_BUFFER_EMPTY(buffer_tx0)){
 958:	90 91 72 02 	lds	r25, 0x0272	; 0x800272 <__data_end+0x40>
 95c:	80 91 73 02 	lds	r24, 0x0273	; 0x800273 <__data_end+0x41>
 960:	98 13       	cpse	r25, r24
 962:	06 c0       	rjmp	.+12     	; 0x970 <__vector_26+0x32>
		UCSR0B &= (~(1<<UDRIE0));
 964:	e1 ec       	ldi	r30, 0xC1	; 193
 966:	f0 e0       	ldi	r31, 0x00	; 0
 968:	80 81       	ld	r24, Z
 96a:	8f 7d       	andi	r24, 0xDF	; 223
 96c:	80 83       	st	Z, r24
 96e:	0c c0       	rjmp	.+24     	; 0x988 <__vector_26+0x4a>
	}
	else{
		UDR0=buffer_tx0.buffer[buffer_tx0.out_idx++];
 970:	a3 e7       	ldi	r26, 0x73	; 115
 972:	b2 e0       	ldi	r27, 0x02	; 2
 974:	ec 91       	ld	r30, X
 976:	81 e0       	ldi	r24, 0x01	; 1
 978:	8e 0f       	add	r24, r30
 97a:	8c 93       	st	X, r24
 97c:	f0 e0       	ldi	r31, 0x00	; 0
 97e:	ee 5c       	subi	r30, 0xCE	; 206
 980:	fd 4f       	sbci	r31, 0xFD	; 253
 982:	80 81       	ld	r24, Z
 984:	80 93 c6 00 	sts	0x00C6, r24	; 0x8000c6 <__TEXT_REGION_LENGTH__+0x7000c6>
	}
}
 988:	ff 91       	pop	r31
 98a:	ef 91       	pop	r30
 98c:	bf 91       	pop	r27
 98e:	af 91       	pop	r26
 990:	9f 91       	pop	r25
 992:	8f 91       	pop	r24
 994:	0f 90       	pop	r0
 996:	0b be       	out	0x3b, r0	; 59
 998:	0f 90       	pop	r0
 99a:	0f be       	out	0x3f, r0	; 63
 99c:	0f 90       	pop	r0
 99e:	1f 90       	pop	r1
 9a0:	18 95       	reti

000009a2 <__vector_37>:

ISR( USART1_UDRE_vect ){
 9a2:	1f 92       	push	r1
 9a4:	0f 92       	push	r0
 9a6:	0f b6       	in	r0, 0x3f	; 63
 9a8:	0f 92       	push	r0
 9aa:	11 24       	eor	r1, r1
 9ac:	0b b6       	in	r0, 0x3b	; 59
 9ae:	0f 92       	push	r0
 9b0:	8f 93       	push	r24
 9b2:	9f 93       	push	r25
 9b4:	af 93       	push	r26
 9b6:	bf 93       	push	r27
 9b8:	ef 93       	push	r30
 9ba:	ff 93       	push	r31
	if(IF_BUFFER_EMPTY(buffer_tx1)){
 9bc:	90 91 7a 03 	lds	r25, 0x037A	; 0x80037a <buffer_tx1+0x40>
 9c0:	80 91 7b 03 	lds	r24, 0x037B	; 0x80037b <buffer_tx1+0x41>
 9c4:	98 13       	cpse	r25, r24
 9c6:	06 c0       	rjmp	.+12     	; 0x9d4 <__vector_37+0x32>
		UCSR1B &= (~(1<<UDRIE1));
 9c8:	e9 ec       	ldi	r30, 0xC9	; 201
 9ca:	f0 e0       	ldi	r31, 0x00	; 0
 9cc:	80 81       	ld	r24, Z
 9ce:	8f 7d       	andi	r24, 0xDF	; 223
 9d0:	80 83       	st	Z, r24
 9d2:	0c c0       	rjmp	.+24     	; 0x9ec <__vector_37+0x4a>
	}
	else{
		UDR1=buffer_tx1.buffer[buffer_tx1.out_idx++];
 9d4:	ab e7       	ldi	r26, 0x7B	; 123
 9d6:	b3 e0       	ldi	r27, 0x03	; 3
 9d8:	ec 91       	ld	r30, X
 9da:	81 e0       	ldi	r24, 0x01	; 1
 9dc:	8e 0f       	add	r24, r30
 9de:	8c 93       	st	X, r24
 9e0:	f0 e0       	ldi	r31, 0x00	; 0
 9e2:	e6 5c       	subi	r30, 0xC6	; 198
 9e4:	fc 4f       	sbci	r31, 0xFC	; 252
 9e6:	80 81       	ld	r24, Z
 9e8:	80 93 ce 00 	sts	0x00CE, r24	; 0x8000ce <__TEXT_REGION_LENGTH__+0x7000ce>
	}
}
 9ec:	ff 91       	pop	r31
 9ee:	ef 91       	pop	r30
 9f0:	bf 91       	pop	r27
 9f2:	af 91       	pop	r26
 9f4:	9f 91       	pop	r25
 9f6:	8f 91       	pop	r24
 9f8:	0f 90       	pop	r0
 9fa:	0b be       	out	0x3b, r0	; 59
 9fc:	0f 90       	pop	r0
 9fe:	0f be       	out	0x3f, r0	; 63
 a00:	0f 90       	pop	r0
 a02:	1f 90       	pop	r1
 a04:	18 95       	reti

00000a06 <__vector_52>:

ISR( USART2_UDRE_vect ){
 a06:	1f 92       	push	r1
 a08:	0f 92       	push	r0
 a0a:	0f b6       	in	r0, 0x3f	; 63
 a0c:	0f 92       	push	r0
 a0e:	11 24       	eor	r1, r1
 a10:	0b b6       	in	r0, 0x3b	; 59
 a12:	0f 92       	push	r0
 a14:	8f 93       	push	r24
 a16:	9f 93       	push	r25
 a18:	af 93       	push	r26
 a1a:	bf 93       	push	r27
 a1c:	ef 93       	push	r30
 a1e:	ff 93       	push	r31
	if(IF_BUFFER_EMPTY(buffer_tx2)){
 a20:	90 91 40 04 	lds	r25, 0x0440	; 0x800440 <buffer_tx2+0x40>
 a24:	80 91 41 04 	lds	r24, 0x0441	; 0x800441 <buffer_tx2+0x41>
 a28:	98 13       	cpse	r25, r24
 a2a:	06 c0       	rjmp	.+12     	; 0xa38 <__vector_52+0x32>
		UCSR2B &= (~(1<<UDRIE2));
 a2c:	e1 ed       	ldi	r30, 0xD1	; 209
 a2e:	f0 e0       	ldi	r31, 0x00	; 0
 a30:	80 81       	ld	r24, Z
 a32:	8f 7d       	andi	r24, 0xDF	; 223
 a34:	80 83       	st	Z, r24
 a36:	0c c0       	rjmp	.+24     	; 0xa50 <__vector_52+0x4a>
	}
	else{
		UDR2=buffer_tx2.buffer[buffer_tx2.out_idx++];
 a38:	a1 e4       	ldi	r26, 0x41	; 65
 a3a:	b4 e0       	ldi	r27, 0x04	; 4
 a3c:	ec 91       	ld	r30, X
 a3e:	81 e0       	ldi	r24, 0x01	; 1
 a40:	8e 0f       	add	r24, r30
 a42:	8c 93       	st	X, r24
 a44:	f0 e0       	ldi	r31, 0x00	; 0
 a46:	e0 50       	subi	r30, 0x00	; 0
 a48:	fc 4f       	sbci	r31, 0xFC	; 252
 a4a:	80 81       	ld	r24, Z
 a4c:	80 93 d6 00 	sts	0x00D6, r24	; 0x8000d6 <__TEXT_REGION_LENGTH__+0x7000d6>
	}
}
 a50:	ff 91       	pop	r31
 a52:	ef 91       	pop	r30
 a54:	bf 91       	pop	r27
 a56:	af 91       	pop	r26
 a58:	9f 91       	pop	r25
 a5a:	8f 91       	pop	r24
 a5c:	0f 90       	pop	r0
 a5e:	0b be       	out	0x3b, r0	; 59
 a60:	0f 90       	pop	r0
 a62:	0f be       	out	0x3f, r0	; 63
 a64:	0f 90       	pop	r0
 a66:	1f 90       	pop	r1
 a68:	18 95       	reti

00000a6a <__vector_55>:

ISR( USART3_UDRE_vect ){
 a6a:	1f 92       	push	r1
 a6c:	0f 92       	push	r0
 a6e:	0f b6       	in	r0, 0x3f	; 63
 a70:	0f 92       	push	r0
 a72:	11 24       	eor	r1, r1
 a74:	0b b6       	in	r0, 0x3b	; 59
 a76:	0f 92       	push	r0
 a78:	8f 93       	push	r24
 a7a:	9f 93       	push	r25
 a7c:	af 93       	push	r26
 a7e:	bf 93       	push	r27
 a80:	ef 93       	push	r30
 a82:	ff 93       	push	r31
	if(IF_BUFFER_EMPTY(buffer_tx3)){
 a84:	90 91 f6 02 	lds	r25, 0x02F6	; 0x8002f6 <buffer_tx3+0x40>
 a88:	80 91 f7 02 	lds	r24, 0x02F7	; 0x8002f7 <buffer_tx3+0x41>
 a8c:	98 13       	cpse	r25, r24
 a8e:	06 c0       	rjmp	.+12     	; 0xa9c <__vector_55+0x32>
		UCSR3B &= (~(1<<UDRIE3));
 a90:	e1 e3       	ldi	r30, 0x31	; 49
 a92:	f1 e0       	ldi	r31, 0x01	; 1
 a94:	80 81       	ld	r24, Z
 a96:	8f 7d       	andi	r24, 0xDF	; 223
 a98:	80 83       	st	Z, r24
 a9a:	0c c0       	rjmp	.+24     	; 0xab4 <__vector_55+0x4a>
	}
	else{
		UDR3=buffer_tx3.buffer[buffer_tx3.out_idx++];
 a9c:	a7 ef       	ldi	r26, 0xF7	; 247
 a9e:	b2 e0       	ldi	r27, 0x02	; 2
 aa0:	ec 91       	ld	r30, X
 aa2:	81 e0       	ldi	r24, 0x01	; 1
 aa4:	8e 0f       	add	r24, r30
 aa6:	8c 93       	st	X, r24
 aa8:	f0 e0       	ldi	r31, 0x00	; 0
 aaa:	ea 54       	subi	r30, 0x4A	; 74
 aac:	fd 4f       	sbci	r31, 0xFD	; 253
 aae:	80 81       	ld	r24, Z
 ab0:	80 93 36 01 	sts	0x0136, r24	; 0x800136 <__TEXT_REGION_LENGTH__+0x700136>
	}
}
 ab4:	ff 91       	pop	r31
 ab6:	ef 91       	pop	r30
 ab8:	bf 91       	pop	r27
 aba:	af 91       	pop	r26
 abc:	9f 91       	pop	r25
 abe:	8f 91       	pop	r24
 ac0:	0f 90       	pop	r0
 ac2:	0b be       	out	0x3b, r0	; 59
 ac4:	0f 90       	pop	r0
 ac6:	0f be       	out	0x3f, r0	; 63
 ac8:	0f 90       	pop	r0
 aca:	1f 90       	pop	r1
 acc:	18 95       	reti

00000ace <__udivmodhi4>:
 ace:	aa 1b       	sub	r26, r26
 ad0:	bb 1b       	sub	r27, r27
 ad2:	51 e1       	ldi	r21, 0x11	; 17
 ad4:	07 c0       	rjmp	.+14     	; 0xae4 <__udivmodhi4_ep>

00000ad6 <__udivmodhi4_loop>:
 ad6:	aa 1f       	adc	r26, r26
 ad8:	bb 1f       	adc	r27, r27
 ada:	a6 17       	cp	r26, r22
 adc:	b7 07       	cpc	r27, r23
 ade:	10 f0       	brcs	.+4      	; 0xae4 <__udivmodhi4_ep>
 ae0:	a6 1b       	sub	r26, r22
 ae2:	b7 0b       	sbc	r27, r23

00000ae4 <__udivmodhi4_ep>:
 ae4:	88 1f       	adc	r24, r24
 ae6:	99 1f       	adc	r25, r25
 ae8:	5a 95       	dec	r21
 aea:	a9 f7       	brne	.-22     	; 0xad6 <__udivmodhi4_loop>
 aec:	80 95       	com	r24
 aee:	90 95       	com	r25
 af0:	bc 01       	movw	r22, r24
 af2:	cd 01       	movw	r24, r26
 af4:	08 95       	ret

00000af6 <__udivmodsi4>:
 af6:	a1 e2       	ldi	r26, 0x21	; 33
 af8:	1a 2e       	mov	r1, r26
 afa:	aa 1b       	sub	r26, r26
 afc:	bb 1b       	sub	r27, r27
 afe:	fd 01       	movw	r30, r26
 b00:	0d c0       	rjmp	.+26     	; 0xb1c <__udivmodsi4_ep>

00000b02 <__udivmodsi4_loop>:
 b02:	aa 1f       	adc	r26, r26
 b04:	bb 1f       	adc	r27, r27
 b06:	ee 1f       	adc	r30, r30
 b08:	ff 1f       	adc	r31, r31
 b0a:	a2 17       	cp	r26, r18
 b0c:	b3 07       	cpc	r27, r19
 b0e:	e4 07       	cpc	r30, r20
 b10:	f5 07       	cpc	r31, r21
 b12:	20 f0       	brcs	.+8      	; 0xb1c <__udivmodsi4_ep>
 b14:	a2 1b       	sub	r26, r18
 b16:	b3 0b       	sbc	r27, r19
 b18:	e4 0b       	sbc	r30, r20
 b1a:	f5 0b       	sbc	r31, r21

00000b1c <__udivmodsi4_ep>:
 b1c:	66 1f       	adc	r22, r22
 b1e:	77 1f       	adc	r23, r23
 b20:	88 1f       	adc	r24, r24
 b22:	99 1f       	adc	r25, r25
 b24:	1a 94       	dec	r1
 b26:	69 f7       	brne	.-38     	; 0xb02 <__udivmodsi4_loop>
 b28:	60 95       	com	r22
 b2a:	70 95       	com	r23
 b2c:	80 95       	com	r24
 b2e:	90 95       	com	r25
 b30:	9b 01       	movw	r18, r22
 b32:	ac 01       	movw	r20, r24
 b34:	bd 01       	movw	r22, r26
 b36:	cf 01       	movw	r24, r30
 b38:	08 95       	ret

00000b3a <_exit>:
 b3a:	f8 94       	cli

00000b3c <__stop_program>:
 b3c:	ff cf       	rjmp	.-2      	; 0xb3c <__stop_program>
